Certificate:
    Data:
        Version: 3 (0x2)
        Serial Number:
            56:84:9e:60:2b:f1:14:5a:11:b1:58:ba:36:50:af:18:2f:ed:70:bd
        Signature Algorithm: sha256WithRSAEncryption
        Issuer: CN=localhost
        Validity
            Not Before: Nov 24 10:54:34 2024 GMT
            Not After : Oct 31 10:54:34 2124 GMT
        Subject: CN=localhost
        Subject Public Key Info:
            Public Key Algorithm: rsaEncryption
                Public-Key: (2048 bit)
                Modulus:
                    00:ad:dd:85:cc:43:d8:63:13:82:74:97:d0:d7:5d:
                    49:cb:e9:19:e8:18:21:f9:19:ec:60:ad:74:a3:ed:
                    8d:e8:4f:5a:4b:94:44:b9:0d:b9:39:e8:96:8e:a5:
                    fc:de:93:46:20:7c:54:93:7b:b1:ac:50:9c:36:1d:
                    f2:0d:b5:d3:b0:26:c2:af:0a:2c:bc:93:63:8c:a1:
                    83:60:4e:f1:8d:6e:23:05:f0:86:fd:c4:dc:bf:c6:
                    8e:70:20:b4:de:0d:c4:86:76:97:80:43:b7:5a:c8:
                    7d:be:d8:70:ee:71:a0:a4:f9:aa:9f:09:5f:57:fa:
                    2f:e8:60:3a:96:07:b2:13:90:42:a4:b4:4d:49:be:
                    a2:ea:5a:30:89:b1:07:fc:60:b2:5b:aa:47:40:32:
                    db:86:a3:72:9c:f6:ee:68:e1:4e:07:3f:98:d8:b5:
                    35:95:b9:a0:e1:74:48:f3:3e:c0:b0:36:69:d1:2c:
                    18:1d:96:ed:fa:33:78:29:d7:31:42:52:52:d2:c1:
                    42:1d:b5:55:22:58:3e:fe:21:f9:ec:3d:bf:89:1d:
                    f1:a7:d9:dd:e9:13:68:b4:fc:ba:6f:e8:2c:45:1f:
                    bb:ae:8f:f6:e7:c5:28:16:0b:0a:be:50:ea:04:83:
                    73:d5:63:98:4f:12:b5:1a:7e:2b:e2:00:1a:e3:99:
                    a0:93
                Exponent: 65537 (0x10001)
        X509v3 extensions:
            X509v3 Subject Alternative Name: 
                DNS:localhost
            X509v3 Subject Key Identifier: 
                94:52:D5:FB:BF:3F:8A:8E:AE:8F:A6:AA:9A:83:5A:82:DC:93:8C:44
    Signature Algorithm: sha256WithRSAEncryption
    Signature Value:
        8a:a0:36:f5:4b:a1:7d:01:53:13:98:8a:c0:3f:d0:85:20:3e:
        ea:2c:c5:16:15:50:12:3a:85:1e:d8:29:15:cf:e2:ab:41:f3:
        cf:2d:b4:3e:97:72:bf:6f:cb:61:7d:7c:a4:e3:13:31:47:4a:
        98:2d:72:d8:d9:89:85:a7:15:b3:e7:ee:43:db:26:bb:77:26:
        ca:0d:ab:f0:27:f2:ef:e7:4f:66:34:91:94:fa:32:3a:15:18:
        1a:ab:1e:b6:9b:13:18:dd:71:94:67:d0:a4:0a:d5:5b:1e:ea:
        09:8f:4a:24:ca:08:80:6e:17:1c:31:97:1f:83:1b:16:b2:09:
        b4:bc:4c:cc:b5:5a:f1:8b:1f:2e:c8:de:b9:76:3b:6c:61:18:
        bb:3b:ff:4c:e0:05:04:38:f9:cf:6c:bc:41:0e:0e:04:a0:2f:
        16:83:ab:5c:0a:33:10:e5:d9:9f:a4:86:e9:ca:2d:7c:26:2a:
        e3:06:e8:1f:07:46:12:a0:4e:d7:0b:31:5b:5b:ce:a7:15:0d:
        7e:60:30:44:5c:e0:10:3c:84:20:98:f4:4d:c2:c9:30:fb:cb:
        34:13:31:0b:2c:b0:47:1d:15:7b:24:a9:75:8e:ab:df:97:50:
        c9:0b:cd:64:5f:d1:e2:0d:8d:07:ad:a8:6c:31:b9:39:7f:94:
        f0:74:3e:23
-----BEGIN CERTIFICATE-----
MIIC7zCCAdegAwIBAgIUVoSeYCvxFFoRsVi6NlCvGC/tcL0wDQYJKoZIhvcNAQEL
BQAwFDESMBAGA1UEAwwJbG9jYWxob3N0MCAXDTI0MTEyNDEwNTQzNFoYDzIxMjQx
MDMxMTA1NDM0WjAUMRIwEAYDVQQDDAlsb2NhbGhvc3QwggEiMA0GCSqGSIb3DQEB
AQUAA4IBDwAwggEKAoIBAQCt3YXMQ9hjE4J0l9DXXUnL6RnoGCH5GexgrXSj7Y3o
T1pLlES5Dbk56JaOpfzek0YgfFSTe7GsUJw2HfINtdOwJsKvCiy8k2OMoYNgTvGN
biMF8Ib9xNy/xo5wILTeDcSGdpeAQ7dayH2+2HDucaCk+aqfCV9X+i/oYDqWB7IT
kEKktE1JvqLqWjCJsQf8YLJbqkdAMtuGo3Kc9u5o4U4HP5jYtTWVuaDhdEjzPsCw
NmnRLBgdlu36M3gp1zFCUlLSwUIdtVUiWD7+IfnsPb+JHfGn2d3pE2i0/Lpv6CxF
H7uuj/bnxSgWCwq+UOoEg3PVY5hPErUafiviABrjmaCTAgMBAAGjNzA1MBQGA1Ud
EQQNMAuCCWxvY2FsaG9zdDAdBgNVHQ4EFgQUlFLV+78/io6uj6aqmoNagtyTjEQw
DQYJKoZIhvcNAQELBQADggEBAIqgNvVLoX0BUxOYisA/0IUgPuosxRYVUBI6hR7Y
KRXP4qtB888ttD6Xcr9vy2F9fKTjEzFHSpgtctjZiYWnFbPn7kPbJrt3JsoNq/An
8u/nT2Y0kZT6MjoVGBqrHrabExjdcZRn0KQK1Vse6gmPSiTKCIBuFxwxlx+DGxay
CbS8TMy1WvGLHy7I3rl2O2xhGLs7/0zgBQQ4+c9svEEODgSgLxaDq1wKMxDl2Z+k
hunKLXwmKuMG6B8HRhKgTtcLMVtbzqcVDX5gMERc4BA8hCCY9E3CyTD7yzQTMQss
sEcdFXskqXWOq9+XUMkLzWRf0eINjQetqGwxuTl/lPB0PiM=
-----END CERTIFICATE-----
