Certificate:
    Data:
        Version: 3 (0x2)
        Serial Number:
            2a:92:a1:79:ff:27:33:f9:e5:60:c3:91:cd:06:29:3f:c1:f8:cf:dd
        Signature Algorithm: sha256WithRSAEncryption
        Issuer: CN=localhost
        Validity
            Not Before: Nov 24 10:34:35 2024 GMT
            Not After : Oct 31 10:34:35 2124 GMT
        Subject: CN=localhost
        Subject Public Key Info:
            Public Key Algorithm: rsaEncryption
                Public-Key: (2048 bit)
                Modulus:
                    00:dd:d0:fe:0d:9f:0f:d0:af:62:a5:d8:7f:88:8b:
                    38:23:95:bd:ad:e6:37:9d:55:c3:48:0a:ab:22:3d:
                    db:b6:40:0f:e5:90:bc:28:28:f9:0d:f7:37:24:7d:
                    d5:69:6d:53:a8:b4:76:da:fb:d6:9a:0a:c1:ae:48:
                    91:07:76:83:5e:96:ed:88:73:40:44:82:9d:02:af:
                    12:f3:b6:a2:33:ed:37:0f:d1:a8:d4:c2:a0:38:61:
                    88:c5:63:8d:13:0a:53:1e:58:3c:57:16:fb:45:df:
                    7f:08:d6:db:51:91:c6:1f:f8:b8:10:2c:54:46:6d:
                    74:31:f0:b0:bc:fc:64:83:a4:3b:1a:9d:a7:8a:d5:
                    3c:9b:b8:be:c1:88:43:f1:db:c1:43:30:d2:ba:a2:
                    d9:70:ad:fa:53:cb:d3:b3:05:61:50:70:78:fc:f5:
                    a7:4d:b2:03:5b:1c:27:4f:29:f8:f4:a5:17:88:7f:
                    5b:22:cb:7b:6d:63:e7:0a:84:c0:de:47:e0:6f:77:
                    ee:17:c5:1e:d6:44:c6:92:8d:45:81:3a:c9:5f:86:
                    43:53:8a:36:2b:36:dc:15:6b:9a:68:01:d8:4c:e0:
                    9b:70:41:14:1d:4b:7f:76:06:49:95:0d:b0:ee:34:
                    b6:a5:9c:a8:e1:ff:d8:75:60:a2:7c:1a:df:1f:46:
                    c7:bb
                Exponent: 65537 (0x10001)
        X509v3 extensions:
            X509v3 Subject Alternative Name: 
                DNS:localhost
            X509v3 Subject Key Identifier: 
                F4:6E:F8:B2:F7:8C:2A:7E:5B:30:91:03:5B:4F:13:71:A3:3A:D8:64
    Signature Algorithm: sha256WithRSAEncryption
    Signature Value:
        81:51:b6:07:64:03:66:7a:83:55:a7:19:15:1c:30:4f:df:3e:
        7e:53:34:73:f7:ff:63:f0:fd:a1:69:87:89:f5:f4:b9:14:50:
        72:a1:a3:de:b6:0e:a2:63:8a:b0:b3:75:f6:5b:83:a2:a8:5d:
        03:f2:a8:27:6d:dc:0e:e3:be:83:4f:c4:61:1e:08:5f:11:ce:
        35:6b:cf:bc:14:08:e0:ac:d1:56:a0:de:91:c4:31:9c:6a:f9:
        a6:c0:59:02:17:a9:82:9b:fc:c8:d1:c1:0b:91:34:13:c2:43:
        f7:57:9a:05:8b:84:50:0c:84:b4:ce:63:40:c2:b0:20:82:50:
        67:3e:80:a6:c4:87:a5:52:6c:71:f3:e3:8b:05:ba:04:43:2b:
        64:f5:5d:7b:00:bd:73:1e:47:90:98:a5:03:f5:05:2e:2f:48:
        ae:32:5c:c3:e8:fb:bf:a3:04:c2:00:b5:68:07:53:bf:b3:c1:
        d6:67:84:29:91:35:46:65:cd:a7:7d:54:5e:21:2b:97:7e:98:
        e9:49:cf:b1:28:47:4b:c2:47:08:f8:65:85:f6:33:71:59:c1:
        04:6d:bb:f7:f4:ff:b4:cb:b8:a4:dd:17:1a:8c:52:fd:c6:7f:
        01:45:25:a7:61:81:27:38:ee:e4:d0:1e:89:32:1b:67:dd:7e:
        87:43:3c:a8
-----BEGIN CERTIFICATE-----
MIIC7zCCAdegAwIBAgIUKpKhef8nM/nlYMORzQYpP8H4z90wDQYJKoZIhvcNAQEL
BQAwFDESMBAGA1UEAwwJbG9jYWxob3N0MCAXDTI0MTEyNDEwMzQzNVoYDzIxMjQx
MDMxMTAzNDM1WjAUMRIwEAYDVQQDDAlsb2NhbGhvc3QwggEiMA0GCSqGSIb3DQEB
AQUAA4IBDwAwggEKAoIBAQDd0P4Nnw/Qr2Kl2H+Iizgjlb2t5jedVcNICqsiPdu2
QA/lkLwoKPkN9zckfdVpbVOotHba+9aaCsGuSJEHdoNelu2Ic0BEgp0CrxLztqIz
7TcP0ajUwqA4YYjFY40TClMeWDxXFvtF338I1ttRkcYf+LgQLFRGbXQx8LC8/GSD
pDsanaeK1TybuL7BiEPx28FDMNK6otlwrfpTy9OzBWFQcHj89adNsgNbHCdPKfj0
pReIf1siy3ttY+cKhMDeR+Bvd+4XxR7WRMaSjUWBOslfhkNTijYrNtwVa5poAdhM
4JtwQRQdS392BkmVDbDuNLalnKjh/9h1YKJ8Gt8fRse7AgMBAAGjNzA1MBQGA1Ud
EQQNMAuCCWxvY2FsaG9zdDAdBgNVHQ4EFgQU9G74sveMKn5bMJEDW08TcaM62GQw
DQYJKoZIhvcNAQELBQADggEBAIFRtgdkA2Z6g1WnGRUcME/fPn5TNHP3/2Pw/aFp
h4n19LkUUHKho962DqJjirCzdfZbg6KoXQPyqCdt3A7jvoNPxGEeCF8RzjVrz7wU
COCs0Vag3pHEMZxq+abAWQIXqYKb/MjRwQuRNBPCQ/dXmgWLhFAMhLTOY0DCsCCC
UGc+gKbEh6VSbHHz44sFugRDK2T1XXsAvXMeR5CYpQP1BS4vSK4yXMPo+7+jBMIA
tWgHU7+zwdZnhCmRNUZlzad9VF4hK5d+mOlJz7EoR0vCRwj4ZYX2M3FZwQRtu/f0
/7TLuKTdFxqMUv3GfwFFJadhgSc47uTQHokyG2fdfodDPKg=
-----END CERTIFICATE-----
