Certificate:
    Data:
        Version: 3 (0x2)
        Serial Number:
            37:a6:4b:d8:ee:7f:12:b3:13:bd:9f:95:d2:9a:64:4a:c3:d8:1f:b2
        Signature Algorithm: sha256WithRSAEncryption
        Issuer: CN=localhost
        Validity
            Not Before: Mar  6 08:22:34 2025 GMT
            Not After : Feb 10 08:22:34 2125 GMT
        Subject: CN=localhost
        Subject Public Key Info:
            Public Key Algorithm: rsaEncryption
                Public-Key: (2048 bit)
                Modulus:
                    00:c0:f4:89:df:7c:e9:4a:21:76:85:a8:b8:84:ea:
                    2f:68:42:9e:79:40:3c:08:fb:66:68:a3:be:a6:19:
                    b3:29:31:d7:49:a5:c5:df:1b:c3:cc:ff:dd:db:7c:
                    45:a8:21:72:72:ec:ab:f7:9a:a8:22:40:bd:0a:f9:
                    4f:b0:8f:34:c5:e8:ed:4d:60:d2:00:a7:3b:0d:28:
                    dc:d4:e1:78:de:09:0b:97:bc:8c:0e:9e:ff:1d:29:
                    ba:35:e3:70:21:14:a7:de:59:ce:1a:81:ad:de:44:
                    6d:fc:55:99:77:ee:43:8c:79:00:df:8f:8b:c7:c1:
                    d3:a6:7f:62:eb:ea:16:96:72:48:25:2b:c0:c5:c9:
                    5e:f1:87:af:16:66:be:8b:0a:a7:ba:d6:7f:e5:ed:
                    24:de:89:dd:01:2f:50:75:05:75:fc:33:82:aa:9b:
                    fa:73:91:18:a3:18:9a:7c:69:2c:e3:26:66:75:44:
                    08:37:f1:dd:2b:dd:8c:ce:48:e0:06:0d:38:ce:ff:
                    24:8f:05:e9:88:60:8e:74:25:9c:d5:cd:a4:c4:fa:
                    cd:d8:48:b6:ff:5f:5c:80:cf:50:a1:fd:1c:56:d8:
                    ba:3d:0a:65:f1:ed:51:d2:41:66:a7:2f:93:5c:35:
                    d0:b3:1c:10:41:f7:27:6a:a7:3c:65:9c:0d:56:e6:
                    30:1b
                Exponent: 65537 (0x10001)
        X509v3 extensions:
            X509v3 Subject Alternative Name: 
                DNS:localhost
            X509v3 Subject Key Identifier: 
                55:CB:5A:A2:EF:28:1D:88:17:BA:83:17:76:7A:A0:B7:C9:6D:A0:09
    Signature Algorithm: sha256WithRSAEncryption
    Signature Value:
        62:af:00:f1:2e:f9:d7:59:e9:33:61:43:32:58:39:3d:eb:52:
        2f:0b:cc:45:0b:e1:fd:30:5e:9a:85:53:b7:4d:5f:44:9b:fd:
        80:2e:30:b7:f3:b3:7d:ba:28:fe:c5:60:52:9e:e0:28:f1:33:
        d3:e7:b4:e7:96:77:60:be:50:6b:24:ef:10:91:fc:82:78:9b:
        64:ed:43:1e:b2:23:58:1d:53:43:87:b8:f7:be:d0:a3:45:92:
        2c:78:39:0b:d2:34:6f:86:a2:4b:cc:2d:36:1a:98:e9:55:1a:
        43:7e:7a:38:de:87:1f:93:a1:00:d6:63:19:34:bc:22:23:55:
        0f:95:7a:8e:99:8d:8c:cb:c3:f4:04:dd:5a:85:b4:01:2f:d4:
        34:7a:1a:a1:4f:e8:f6:2e:e0:d9:c8:b7:05:fc:c4:88:4d:5c:
        8c:8c:26:c9:e2:2b:e9:ed:70:74:cb:20:66:e8:a7:02:d2:4a:
        13:42:55:ff:3e:b9:42:46:c1:e3:f0:24:b4:0b:f6:c9:a0:49:
        d5:45:f0:d8:8d:4e:fb:28:29:6c:85:9b:35:92:f8:2f:80:b0:
        4d:e2:8f:98:bb:72:15:ff:75:a0:bf:af:4d:47:40:8e:d3:e2:
        7f:32:8b:67:ea:11:1c:7a:f4:d1:4f:f9:a2:15:24:99:a7:89:
        a2:94:12:aa
-----BEGIN CERTIFICATE-----
MIIC7zCCAdegAwIBAgIUN6ZL2O5/ErMTvZ+V0ppkSsPYH7IwDQYJKoZIhvcNAQEL
BQAwFDESMBAGA1UEAwwJbG9jYWxob3N0MCAXDTI1MDMwNjA4MjIzNFoYDzIxMjUw
MjEwMDgyMjM0WjAUMRIwEAYDVQQDDAlsb2NhbGhvc3QwggEiMA0GCSqGSIb3DQEB
AQUAA4IBDwAwggEKAoIBAQDA9InffOlKIXaFqLiE6i9oQp55QDwI+2Zoo76mGbMp
MddJpcXfG8PM/93bfEWoIXJy7Kv3mqgiQL0K+U+wjzTF6O1NYNIApzsNKNzU4Xje
CQuXvIwOnv8dKbo143AhFKfeWc4aga3eRG38VZl37kOMeQDfj4vHwdOmf2Lr6haW
ckglK8DFyV7xh68WZr6LCqe61n/l7STeid0BL1B1BXX8M4Kqm/pzkRijGJp8aSzj
JmZ1RAg38d0r3YzOSOAGDTjO/ySPBemIYI50JZzVzaTE+s3YSLb/X1yAz1Ch/RxW
2Lo9CmXx7VHSQWanL5NcNdCzHBBB9ydqpzxlnA1W5jAbAgMBAAGjNzA1MBQGA1Ud
EQQNMAuCCWxvY2FsaG9zdDAdBgNVHQ4EFgQUVctaou8oHYgXuoMXdnqgt8ltoAkw
DQYJKoZIhvcNAQELBQADggEBAGKvAPEu+ddZ6TNhQzJYOT3rUi8LzEUL4f0wXpqF
U7dNX0Sb/YAuMLfzs326KP7FYFKe4CjxM9PntOeWd2C+UGsk7xCR/IJ4m2TtQx6y
I1gdU0OHuPe+0KNFkix4OQvSNG+GokvMLTYamOlVGkN+ejjehx+ToQDWYxk0vCIj
VQ+Veo6ZjYzLw/QE3VqFtAEv1DR6GqFP6PYu4NnItwX8xIhNXIyMJsniK+ntcHTL
IGbopwLSShNCVf8+uUJGwePwJLQL9smgSdVF8NiNTvsoKWyFmzWS+C+AsE3ij5i7
chX/daC/r01HQI7T4n8yi2fqERx69NFP+aIVJJmniaKUEqo=
-----END CERTIFICATE-----
