Certificate:
    Data:
        Version: 3 (0x2)
        Serial Number:
            7b:b5:b8:3f:4f:0b:7f:79:80:f0:11:a7:16:d9:8e:9d:d2:a5:11:a1
        Signature Algorithm: sha256WithRSAEncryption
        Issuer: CN=localhost
        Validity
            Not Before: Mar  6 08:33:16 2025 GMT
            Not After : Feb 10 08:33:16 2125 GMT
        Subject: CN=localhost
        Subject Public Key Info:
            Public Key Algorithm: rsaEncryption
                Public-Key: (2048 bit)
                Modulus:
                    00:a0:bd:9c:01:ed:07:c4:cc:57:4f:0a:74:68:24:
                    68:ae:d5:ce:4a:8d:ca:43:6f:a9:53:6d:1c:e6:14:
                    8e:0d:2d:97:d9:ae:2a:ac:1e:5a:f0:fb:f8:98:95:
                    40:6a:9a:d8:a6:1f:8e:5f:ee:75:7b:ad:32:4d:9b:
                    37:9e:9e:91:2d:fe:82:0d:62:d7:86:4c:1a:7d:20:
                    66:38:ba:98:ff:72:ff:d8:81:28:b4:8b:24:3b:2c:
                    86:20:06:65:c7:3f:e7:f6:d9:d5:65:e4:4d:60:b0:
                    c3:51:00:cb:d4:09:72:46:25:0d:b8:ea:5f:2e:89:
                    66:72:2d:ec:23:55:2f:a5:5c:1d:cb:11:b8:c0:28:
                    5e:d1:f2:c4:7e:7c:c3:89:99:ac:f7:71:09:4d:9d:
                    98:09:9a:55:2f:75:15:8d:b3:e1:05:9a:9f:ae:20:
                    a9:a9:78:01:65:f7:91:df:f5:bf:8d:4b:c9:80:3f:
                    3b:6b:a6:36:c8:dc:4b:31:d4:b9:cb:54:da:0a:69:
                    05:6d:6b:fc:d6:92:e9:24:19:1f:10:3d:91:80:c4:
                    95:58:9c:2a:83:64:0d:bd:88:37:ab:ee:74:8e:3e:
                    b4:d0:ca:9c:0d:f1:a8:eb:34:ea:3b:eb:aa:1c:5a:
                    d6:be:81:91:81:14:2c:03:97:fc:03:a8:1e:08:54:
                    e5:9f
                Exponent: 65537 (0x10001)
        X509v3 extensions:
            X509v3 Subject Alternative Name: 
                DNS:localhost
            X509v3 Subject Key Identifier: 
                7C:9E:EE:D4:AC:84:8D:D1:C4:F5:D0:3F:E6:4F:6A:64:1B:E2:45:75
    Signature Algorithm: sha256WithRSAEncryption
    Signature Value:
        45:4d:62:93:e8:e5:19:96:f2:0a:9a:6c:33:98:ad:49:1b:ee:
        2c:56:0b:ea:af:e1:5f:67:33:40:ae:2d:b2:93:68:ff:cb:01:
        b5:74:6a:5b:f8:20:0e:fb:46:c7:65:39:88:b3:be:3d:79:86:
        bf:44:4a:3c:6b:b8:b0:66:6c:95:53:b1:48:8e:7f:d5:66:16:
        a5:6a:2a:78:61:e4:97:9a:c4:96:4d:44:39:37:19:64:26:7e:
        a4:52:5c:00:1e:fc:dd:e7:54:56:f1:99:ef:08:ed:94:27:81:
        43:ee:35:ab:4b:61:aa:5d:f9:fc:43:fa:65:13:7c:0d:b5:80:
        7c:79:83:b9:32:2d:c9:9c:63:c0:d2:dc:0f:8e:cb:90:e2:67:
        89:80:c7:21:9f:59:57:e9:89:16:5c:c2:a5:a6:57:57:1f:cf:
        c3:1a:eb:af:35:15:ce:43:ee:f6:7b:da:2c:24:7f:5d:a6:d8:
        4b:fe:2a:ca:56:12:fd:c7:c7:80:4f:12:12:75:d2:b9:4c:9c:
        cf:cb:b0:7b:04:94:8b:e1:34:6b:e5:e6:c4:22:9c:df:1c:56:
        e7:5f:ba:49:0c:26:97:73:63:12:6c:6f:27:b4:2f:4c:ba:8d:
        a9:b3:71:90:31:b9:35:ba:c6:ee:8e:b1:1f:cf:1c:6d:38:d1:
        ee:79:04:56
-----BEGIN CERTIFICATE-----
MIIC7zCCAdegAwIBAgIUe7W4P08Lf3mA8BGnFtmOndKlEaEwDQYJKoZIhvcNAQEL
BQAwFDESMBAGA1UEAwwJbG9jYWxob3N0MCAXDTI1MDMwNjA4MzMxNloYDzIxMjUw
MjEwMDgzMzE2WjAUMRIwEAYDVQQDDAlsb2NhbGhvc3QwggEiMA0GCSqGSIb3DQEB
AQUAA4IBDwAwggEKAoIBAQCgvZwB7QfEzFdPCnRoJGiu1c5KjcpDb6lTbRzmFI4N
LZfZriqsHlrw+/iYlUBqmtimH45f7nV7rTJNmzeenpEt/oINYteGTBp9IGY4upj/
cv/YgSi0iyQ7LIYgBmXHP+f22dVl5E1gsMNRAMvUCXJGJQ246l8uiWZyLewjVS+l
XB3LEbjAKF7R8sR+fMOJmaz3cQlNnZgJmlUvdRWNs+EFmp+uIKmpeAFl95Hf9b+N
S8mAPztrpjbI3Esx1LnLVNoKaQVta/zWkukkGR8QPZGAxJVYnCqDZA29iDer7nSO
PrTQypwN8ajrNOo766ocWta+gZGBFCwDl/wDqB4IVOWfAgMBAAGjNzA1MBQGA1Ud
EQQNMAuCCWxvY2FsaG9zdDAdBgNVHQ4EFgQUfJ7u1KyEjdHE9dA/5k9qZBviRXUw
DQYJKoZIhvcNAQELBQADggEBAEVNYpPo5RmW8gqabDOYrUkb7ixWC+qv4V9nM0Cu
LbKTaP/LAbV0alv4IA77RsdlOYizvj15hr9ESjxruLBmbJVTsUiOf9VmFqVqKnhh
5JeaxJZNRDk3GWQmfqRSXAAe/N3nVFbxme8I7ZQngUPuNatLYapd+fxD+mUTfA21
gHx5g7kyLcmcY8DS3A+Oy5DiZ4mAxyGfWVfpiRZcwqWmV1cfz8Ma6681Fc5D7vZ7
2iwkf12m2Ev+KspWEv3Hx4BPEhJ10rlMnM/LsHsElIvhNGvl5sQinN8cVudfukkM
JpdzYxJsbye0L0y6jamzcZAxuTW6xu6OsR/PHG040e55BFY=
-----END CERTIFICATE-----
